target datalayout = "e-m:e-p270:32:32-p271:32:32-p272:64:64-i64:64-i128:128-f80:128-n8:16:32:64-S128"
target triple = "x86_64-pc-linux-gnu"

; Function Attrs: null_pointer_is_valid sspstrong uwtable
define ptr @get_8859_1_string(ptr noundef %0, ptr noundef %1, i32 noundef %2) #0 {
  %4 = alloca ptr, align 8
  %5 = alloca ptr, align 8
  %6 = alloca i32, align 4
  %7 = alloca ptr, align 8
  %8 = alloca i8, align 1
  store ptr %0, ptr %4, align 8
  store ptr %1, ptr %5, align 8
  store i32 %2, ptr %6, align 4
  call void @llvm.lifetime.start.p0(i64 8, ptr %7) #8
  %9 = load ptr, ptr %4, align 8
  %10 = load i32, ptr %6, align 4
  %11 = add i32 %10, 1
  %12 = sext i32 %11 to i64
  %13 = call noalias ptr @wmem_strbuf_new_sized(ptr noundef %9, i64 noundef %12)
  store ptr %13, ptr %7, align 8
  br label %14

14:                                               ; preds = %30, %3
  %15 = load i32, ptr %6, align 4
  %16 = icmp sgt i32 %15, 0
  br i1 %16, label %17, label %35

17:                                               ; preds = %14
  call void @llvm.lifetime.start.p0(i64 1, ptr %8) #8
  %18 = load ptr, ptr %5, align 8
  %19 = load i8, ptr %18, align 1
  store i8 %19, ptr %8, align 1
  %20 = load i8, ptr %8, align 1
  %21 = zext i8 %20 to i32
  %22 = icmp slt i32 %21, 128
  br i1 %22, label %23, label %26

23:                                               ; preds = %17
  %24 = load ptr, ptr %7, align 8
  %25 = load i8, ptr %8, align 1
  call void @wmem_strbuf_append_c(ptr noundef %24, i8 noundef signext %25)
  br label %30

26:                                               ; preds = %17
  %27 = load ptr, ptr %7, align 8
  %28 = load i8, ptr %8, align 1
  %29 = zext i8 %28 to i32
  call void @wmem_strbuf_append_unichar(ptr noundef %27, i32 noundef %29)
  br label %30

30:                                               ; preds = %26, %23
  %31 = load ptr, ptr %5, align 8
  %32 = getelementptr i8, ptr %31, i32 1
  store ptr %32, ptr %5, align 8
  %33 = load i32, ptr %6, align 4
  %34 = add i32 %33, -1
  store i32 %34, ptr %6, align 4
  call void @llvm.lifetime.end.p0(i64 1, ptr %8) #8
  br label %14, !llvm.loop !9

35:                                               ; preds = %14
  %36 = load ptr, ptr %7, align 8
  %37 = call ptr @wmem_strbuf_finalize(ptr noundef %36)
  call void @llvm.lifetime.end.p0(i64 8, ptr %7) #8
  ret ptr %37
}