; Function Attrs: null_pointer_is_valid sspstrong uwtable
define ptr @get_8859_1_string(ptr noundef %0, ptr noundef readonly captures(none) %1, i32 noundef %2) local_unnamed_addr #0 {
  %4 = add i32 %2, 1
  %5 = sext i32 %4 to i64
  %6 = tail call noalias ptr @wmem_strbuf_new_sized(ptr noundef %0, i64 noundef %5)
  %7 = icmp sgt i32 %2, 0
  br i1 %7, label %.lr.ph, label %._crit_edge

.lr.ph:                                           ; preds = %3, %13
  %.014 = phi ptr [ %14, %13 ], [ %1, %3 ]
  %.01113 = phi i32 [ %15, %13 ], [ %2, %3 ]
  %8 = load i8, ptr %.014, align 1
  %9 = icmp sgt i8 %8, -1
  br i1 %9, label %10, label %11

10:                                               ; preds = %.lr.ph
  tail call void @wmem_strbuf_append_c(ptr noundef %6, i8 noundef signext %8)
  br label %13

11:                                               ; preds = %.lr.ph
  %12 = zext i8 %8 to i32
  tail call void @wmem_strbuf_append_unichar(ptr noundef %6, i32 noundef %12)
  br label %13

13:                                               ; preds = %11, %10
  %14 = getelementptr i8, ptr %.014, i64 1
  %15 = add nsw i32 %.01113, -1
  %16 = icmp sgt i32 %.01113, 1
  br i1 %16, label %.lr.ph, label %._crit_edge, !llvm.loop !9

._crit_edge:                                      ; preds = %13, %3
  %17 = tail call ptr @wmem_strbuf_finalize(ptr noundef %6)
  ret ptr %17
}